target datalayout = "e-m:e-p270:32:32-p271:32:32-p272:64:64-i64:64-i128:128-f80:128-n8:16:32:64-S128"
target triple = "x86_64-pc-linux-gnu"

%struct.AVEncryptionInfo = type { i32, i32, i32, ptr, i32, ptr, i32, ptr, i32 }
%struct.AVSubsampleEncryptionInfo = type { i32, i32 }

; Function Attrs: alwaysinline nounwind willreturn memory(none) uwtable
define internal i32 @av_bswap32(i32 noundef %0) #4 {
  %2 = alloca i32, align 4
  store i32 %0, ptr %2, align 4, !tbaa !4
  %3 = load i32, ptr %2, align 4, !tbaa !4
  %4 = shl i32 %3, 8
  %5 = and i32 %4, 65280
  %6 = load i32, ptr %2, align 4, !tbaa !4
  %7 = lshr i32 %6, 8
  %8 = and i32 %7, 255
  %9 = or i32 %5, %8
  %10 = shl i32 %9, 16
  %11 = load i32, ptr %2, align 4, !tbaa !4
  %12 = lshr i32 %11, 16
  %13 = shl i32 %12, 8
  %14 = and i32 %13, 65280
  %15 = load i32, ptr %2, align 4, !tbaa !4
  %16 = lshr i32 %15, 16
  %17 = lshr i32 %16, 8
  %18 = and i32 %17, 255
  %19 = or i32 %14, %18
  %20 = or i32 %10, %19
  ret i32 %20
}

; Function Attrs: nounwind uwtable
define ptr @av_encryption_info_get_side_data(ptr noundef %0, i64 noundef %1) #0 {
  %3 = alloca ptr, align 8
  %4 = alloca ptr, align 8
  %5 = alloca i64, align 8
  %6 = alloca ptr, align 8
  %7 = alloca i64, align 8
  %8 = alloca i64, align 8
  %9 = alloca i64, align 8
  %10 = alloca i64, align 8
  %11 = alloca i32, align 4
  store ptr %0, ptr %4, align 8, !tbaa !23
  store i64 %1, ptr %5, align 8, !tbaa !24
  call void @llvm.lifetime.start.p0(i64 8, ptr %6) #5
  call void @llvm.lifetime.start.p0(i64 8, ptr %7) #5
  call void @llvm.lifetime.start.p0(i64 8, ptr %8) #5
  call void @llvm.lifetime.start.p0(i64 8, ptr %9) #5
  call void @llvm.lifetime.start.p0(i64 8, ptr %10) #5
  %12 = load ptr, ptr %4, align 8, !tbaa !23
  %13 = icmp ne ptr %12, null
  br i1 %13, label %14, label %17

14:                                               ; preds = %2
  %15 = load i64, ptr %5, align 8, !tbaa !24
  %16 = icmp ult i64 %15, 24
  br i1 %16, label %17, label %18

17:                                               ; preds = %14, %2
  store ptr null, ptr %3, align 8
  store i32 1, ptr %11, align 4
  br label %124

18:                                               ; preds = %14
  %19 = load ptr, ptr %4, align 8, !tbaa !23
  %20 = getelementptr inbounds i8, ptr %19, i64 12
  %21 = load i32, ptr %20, align 1, !tbaa !26
  %22 = call i32 @av_bswap32(i32 noundef %21) #6
  %23 = zext i32 %22 to i64
  store i64 %23, ptr %7, align 8, !tbaa !24
  %24 = load ptr, ptr %4, align 8, !tbaa !23
  %25 = getelementptr inbounds i8, ptr %24, i64 16
  %26 = load i32, ptr %25, align 1, !tbaa !26
  %27 = call i32 @av_bswap32(i32 noundef %26) #6
  %28 = zext i32 %27 to i64
  store i64 %28, ptr %8, align 8, !tbaa !24
  %29 = load ptr, ptr %4, align 8, !tbaa !23
  %30 = getelementptr inbounds i8, ptr %29, i64 20
  %31 = load i32, ptr %30, align 1, !tbaa !26
  %32 = call i32 @av_bswap32(i32 noundef %31) #6
  %33 = zext i32 %32 to i64
  store i64 %33, ptr %9, align 8, !tbaa !24
  %34 = load i64, ptr %5, align 8, !tbaa !24
  %35 = load i64, ptr %7, align 8, !tbaa !24
  %36 = add i64 24, %35
  %37 = load i64, ptr %8, align 8, !tbaa !24
  %38 = add i64 %36, %37
  %39 = load i64, ptr %9, align 8, !tbaa !24
  %40 = mul i64 %39, 8
  %41 = add i64 %38, %40
  %42 = icmp ult i64 %34, %41
  br i1 %42, label %43, label %44

43:                                               ; preds = %18
  store ptr null, ptr %3, align 8
  store i32 1, ptr %11, align 4
  br label %124

44:                                               ; preds = %18
  %45 = load i64, ptr %9, align 8, !tbaa !24
  %46 = trunc i64 %45 to i32
  %47 = load i64, ptr %7, align 8, !tbaa !24
  %48 = trunc i64 %47 to i32
  %49 = load i64, ptr %8, align 8, !tbaa !24
  %50 = trunc i64 %49 to i32
  %51 = call ptr @av_encryption_info_alloc(i32 noundef %46, i32 noundef %48, i32 noundef %50)
  store ptr %51, ptr %6, align 8, !tbaa !8
  %52 = load ptr, ptr %6, align 8, !tbaa !8
  %53 = icmp ne ptr %52, null
  br i1 %53, label %55, label %54

54:                                               ; preds = %44
  store ptr null, ptr %3, align 8
  store i32 1, ptr %11, align 4
  br label %124

55:                                               ; preds = %44
  %56 = load ptr, ptr %4, align 8, !tbaa !23
  %57 = load i32, ptr %56, align 1, !tbaa !26
  %58 = call i32 @av_bswap32(i32 noundef %57) #6
  %59 = load ptr, ptr %6, align 8, !tbaa !8
  %60 = getelementptr inbounds nuw %struct.AVEncryptionInfo, ptr %59, i32 0, i32 0
  store i32 %58, ptr %60, align 8, !tbaa !20
  %61 = load ptr, ptr %4, align 8, !tbaa !23
  %62 = getelementptr inbounds i8, ptr %61, i64 4
  %63 = load i32, ptr %62, align 1, !tbaa !26
  %64 = call i32 @av_bswap32(i32 noundef %63) #6
  %65 = load ptr, ptr %6, align 8, !tbaa !8
  %66 = getelementptr inbounds nuw %struct.AVEncryptionInfo, ptr %65, i32 0, i32 1
  store i32 %64, ptr %66, align 4, !tbaa !21
  %67 = load ptr, ptr %4, align 8, !tbaa !23
  %68 = getelementptr inbounds i8, ptr %67, i64 8
  %69 = load i32, ptr %68, align 1, !tbaa !26
  %70 = call i32 @av_bswap32(i32 noundef %69) #6
  %71 = load ptr, ptr %6, align 8, !tbaa !8
  %72 = getelementptr inbounds nuw %struct.AVEncryptionInfo, ptr %71, i32 0, i32 2
  store i32 %70, ptr %72, align 8, !tbaa !22
  %73 = load ptr, ptr %6, align 8, !tbaa !8
  %74 = getelementptr inbounds nuw %struct.AVEncryptionInfo, ptr %73, i32 0, i32 3
  %75 = load ptr, ptr %74, align 8, !tbaa !11
  %76 = load ptr, ptr %4, align 8, !tbaa !23
  %77 = getelementptr inbounds i8, ptr %76, i64 24
  %78 = load i64, ptr %7, align 8, !tbaa !24
  call void @llvm.memcpy.p0.p0.i64(ptr align 1 %75, ptr align 1 %77, i64 %78, i1 false)
  %79 = load ptr, ptr %6, align 8, !tbaa !8
  %80 = getelementptr inbounds nuw %struct.AVEncryptionInfo, ptr %79, i32 0, i32 5
  %81 = load ptr, ptr %80, align 8, !tbaa !16
  %82 = load ptr, ptr %4, align 8, !tbaa !23
  %83 = load i64, ptr %7, align 8, !tbaa !24
  %84 = getelementptr inbounds nuw i8, ptr %82, i64 %83
  %85 = getelementptr inbounds i8, ptr %84, i64 24
  %86 = load i64, ptr %8, align 8, !tbaa !24
  call void @llvm.memcpy.p0.p0.i64(ptr align 1 %81, ptr align 1 %85, i64 %86, i1 false)
  %87 = load i64, ptr %7, align 8, !tbaa !24
  %88 = load i64, ptr %8, align 8, !tbaa !24
  %89 = add i64 %87, %88
  %90 = add i64 %89, 24
  %91 = load ptr, ptr %4, align 8, !tbaa !23
  %92 = getelementptr inbounds nuw i8, ptr %91, i64 %90
  store ptr %92, ptr %4, align 8, !tbaa !23
  store i64 0, ptr %10, align 8, !tbaa !24
  br label %93

93:                                               ; preds = %119, %55
  %94 = load i64, ptr %10, align 8, !tbaa !24
  %95 = load i64, ptr %9, align 8, !tbaa !24
  %96 = icmp ult i64 %94, %95
  br i1 %96, label %97, label %122

97:                                               ; preds = %93
  %98 = load ptr, ptr %4, align 8, !tbaa !23
  %99 = load i32, ptr %98, align 1, !tbaa !26
  %100 = call i32 @av_bswap32(i32 noundef %99) #6
  %101 = load ptr, ptr %6, align 8, !tbaa !8
  %102 = getelementptr inbounds nuw %struct.AVEncryptionInfo, ptr %101, i32 0, i32 7
  %103 = load ptr, ptr %102, align 8, !tbaa !18
  %104 = load i64, ptr %10, align 8, !tbaa !24
  %105 = getelementptr inbounds nuw %struct.AVSubsampleEncryptionInfo, ptr %103, i64 %104
  %106 = getelementptr inbounds nuw %struct.AVSubsampleEncryptionInfo, ptr %105, i32 0, i32 0
  store i32 %100, ptr %106, align 4, !tbaa !27
  %107 = load ptr, ptr %4, align 8, !tbaa !23
  %108 = getelementptr inbounds i8, ptr %107, i64 4
  %109 = load i32, ptr %108, align 1, !tbaa !26
  %110 = call i32 @av_bswap32(i32 noundef %109) #6
  %111 = load ptr, ptr %6, align 8, !tbaa !8
  %112 = getelementptr inbounds nuw %struct.AVEncryptionInfo, ptr %111, i32 0, i32 7
  %113 = load ptr, ptr %112, align 8, !tbaa !18
  %114 = load i64, ptr %10, align 8, !tbaa !24
  %115 = getelementptr inbounds nuw %struct.AVSubsampleEncryptionInfo, ptr %113, i64 %114
  %116 = getelementptr inbounds nuw %struct.AVSubsampleEncryptionInfo, ptr %115, i32 0, i32 1
  store i32 %110, ptr %116, align 4, !tbaa !29
  %117 = load ptr, ptr %4, align 8, !tbaa !23
  %118 = getelementptr inbounds i8, ptr %117, i64 8
  store ptr %118, ptr %4, align 8, !tbaa !23
  br label %119

119:                                              ; preds = %97
  %120 = load i64, ptr %10, align 8, !tbaa !24
  %121 = add i64 %120, 1
  store i64 %121, ptr %10, align 8, !tbaa !24
  br label %93, !llvm.loop !30

122:                                              ; preds = %93
  %123 = load ptr, ptr %6, align 8, !tbaa !8
  store ptr %123, ptr %3, align 8
  store i32 1, ptr %11, align 4
  br label %124

124:                                              ; preds = %122, %54, %43, %17
  call void @llvm.lifetime.end.p0(i64 8, ptr %10) #5
  call void @llvm.lifetime.end.p0(i64 8, ptr %9) #5
  call void @llvm.lifetime.end.p0(i64 8, ptr %8) #5
  call void @llvm.lifetime.end.p0(i64 8, ptr %7) #5
  call void @llvm.lifetime.end.p0(i64 8, ptr %6) #5
  %125 = load ptr, ptr %3, align 8
  ret ptr %125
}