; Function Attrs: nounwind uwtable
define ptr @av_encryption_info_get_side_data(ptr noundef readonly captures(address_is_null) %0, i64 noundef %1) local_unnamed_addr #0 {
  %3 = icmp eq ptr %0, null
  %4 = icmp ult i64 %1, 24
  %or.cond = or i1 %3, %4
  br i1 %or.cond, label %.loopexit, label %5

5:                                                ; preds = %2
  %6 = getelementptr inbounds nuw i8, ptr %0, i64 12
  %7 = load i32, ptr %6, align 1, !tbaa !20
  %8 = tail call i32 @llvm.bswap.i32(i32 %7)
  %9 = zext i32 %8 to i64
  %10 = getelementptr inbounds nuw i8, ptr %0, i64 16
  %11 = load i32, ptr %10, align 1, !tbaa !20
  %12 = tail call i32 @llvm.bswap.i32(i32 %11)
  %13 = zext i32 %12 to i64
  %14 = getelementptr inbounds nuw i8, ptr %0, i64 20
  %15 = load i32, ptr %14, align 1, !tbaa !20
  %16 = tail call i32 @llvm.bswap.i32(i32 %15)
  %17 = zext i32 %16 to i64
  %18 = add nuw nsw i64 %9, 24
  %19 = add nuw nsw i64 %18, %13
  %20 = shl nuw nsw i64 %17, 3
  %21 = add nuw nsw i64 %19, %20
  %22 = icmp ult i64 %1, %21
  br i1 %22, label %.loopexit, label %23

23:                                               ; preds = %5
  %24 = tail call ptr @av_encryption_info_alloc(i32 noundef %16, i32 noundef %8, i32 noundef %12)
  %.not = icmp eq ptr %24, null
  br i1 %.not, label %.loopexit, label %25

25:                                               ; preds = %23
  %26 = load i32, ptr %0, align 1, !tbaa !20
  %27 = tail call i32 @llvm.bswap.i32(i32 %26)
  store i32 %27, ptr %24, align 8, !tbaa !17
  %28 = getelementptr inbounds nuw i8, ptr %0, i64 4
  %29 = load i32, ptr %28, align 1, !tbaa !20
  %30 = tail call i32 @llvm.bswap.i32(i32 %29)
  %31 = getelementptr inbounds nuw i8, ptr %24, i64 4
  store i32 %30, ptr %31, align 4, !tbaa !18
  %32 = getelementptr inbounds nuw i8, ptr %0, i64 8
  %33 = load i32, ptr %32, align 1, !tbaa !20
  %34 = tail call i32 @llvm.bswap.i32(i32 %33)
  %35 = getelementptr inbounds nuw i8, ptr %24, i64 8
  store i32 %34, ptr %35, align 8, !tbaa !19
  %36 = getelementptr inbounds nuw i8, ptr %24, i64 16
  %37 = load ptr, ptr %36, align 8, !tbaa !4
  %38 = getelementptr inbounds nuw i8, ptr %0, i64 24
  tail call void @llvm.memcpy.p0.p0.i64(ptr align 1 %37, ptr nonnull align 1 %38, i64 %9, i1 false)
  %39 = getelementptr inbounds nuw i8, ptr %24, i64 32
  %40 = load ptr, ptr %39, align 8, !tbaa !13
  %41 = getelementptr inbounds nuw i8, ptr %0, i64 %9
  %42 = getelementptr inbounds nuw i8, ptr %41, i64 24
  tail call void @llvm.memcpy.p0.p0.i64(ptr align 1 %40, ptr nonnull align 1 %42, i64 %13, i1 false)
  %.not48 = icmp eq i32 %15, 0
  br i1 %.not48, label %.loopexit, label %.lr.ph

.lr.ph:                                           ; preds = %25
  %43 = getelementptr inbounds nuw i8, ptr %41, i64 %13
  %44 = getelementptr inbounds nuw i8, ptr %43, i64 24
  %45 = getelementptr inbounds nuw i8, ptr %24, i64 48
  %46 = load ptr, ptr %45, align 8, !tbaa !15
  %umax = tail call i64 @llvm.umax.i64(i64 %17, i64 1)
  br label %47

47:                                               ; preds = %.lr.ph, %47
  %.047 = phi i64 [ 0, %.lr.ph ], [ %56, %47 ]
  %.04246 = phi ptr [ %44, %.lr.ph ], [ %55, %47 ]
  %48 = load i32, ptr %.04246, align 1, !tbaa !20
  %49 = tail call i32 @llvm.bswap.i32(i32 %48)
  %50 = getelementptr inbounds nuw %struct.AVSubsampleEncryptionInfo, ptr %46, i64 %.047
  store i32 %49, ptr %50, align 4, !tbaa !21
  %51 = getelementptr inbounds nuw i8, ptr %.04246, i64 4
  %52 = load i32, ptr %51, align 1, !tbaa !20
  %53 = tail call i32 @llvm.bswap.i32(i32 %52)
  %54 = getelementptr inbounds nuw %struct.AVSubsampleEncryptionInfo, ptr %46, i64 %.047, i32 1
  store i32 %53, ptr %54, align 4, !tbaa !23
  %55 = getelementptr inbounds nuw i8, ptr %.04246, i64 8
  %56 = add nuw nsw i64 %.047, 1
  %exitcond.not = icmp eq i64 %56, %umax
  br i1 %exitcond.not, label %.loopexit, label %47, !llvm.loop !24

.loopexit:                                        ; preds = %47, %25, %23, %5, %2
  %.041 = phi ptr [ null, %2 ], [ null, %5 ], [ null, %23 ], [ %24, %25 ], [ %24, %47 ]
  ret ptr %.041
}